target datalayout = "e-m:e-p270:32:32-p271:32:32-p272:64:64-i64:64-i128:128-f80:128-n8:16:32:64-S128"
target triple = "x86_64-pc-linux-gnu"

%struct.QArrayData = type { %"class.QtPrivate::RefCount", i32, i32, i64 }
%"class.QtPrivate::RefCount" = type { %class.QBasicAtomicInteger }
%class.QBasicAtomicInteger = type { %"struct.std::atomic" }
%"struct.std::atomic" = type { %"struct.std::__atomic_base" }
%"struct.std::__atomic_base" = type { i32 }
%class.QObject = type { ptr, %class.QScopedPointer }
%class.QScopedPointer = type { ptr }
%class.QPaintDevice = type { ptr, i16, ptr }
%class.QString = type { ptr }
%"class.QMetaObject::Connection" = type { ptr }
%class.SearchMenu = type { %class.MenuWithToolTip, ptr, ptr, i32, i32 }
%class.MenuWithToolTip = type { %class.QMenu }
%class.QMenu = type { %class.QWidget }
%class.QWidget = type { %class.QObject, %class.QPaintDevice, ptr }
%class.QSizePolicy = type { %union.anon.0 }
%union.anon.0 = type { %"struct.QSizePolicy::Bits" }
%"struct.QSizePolicy::Bits" = type { i32 }

@_ZTV10SearchMenu = external unnamed_addr constant { [54 x ptr], [10 x ptr] }, align 8
@.str = private unnamed_addr constant [29 x i8] c"2textEdited( const QString&)\00", align 1
@.str.1 = private unnamed_addr constant [25 x i8] c"1edited( const QString&)\00", align 1
@.str.2 = private unnamed_addr constant [25 x i8] c"2arrowPressed(const int)\00", align 1
@.str.3 = private unnamed_addr constant [24 x i8] c"1changeFocus(const int)\00", align 1
@.str.4 = private unnamed_addr constant [15 x i8] c"2aboutToShow()\00", align 1
@.str.5 = private unnamed_addr constant [22 x i8] c"1onAboutToShowEvent()\00", align 1
@_ZN10QArrayData11shared_nullE = external global [2 x %struct.QArrayData], align 16
@_ZTV15MenuWithToolTip = external unnamed_addr constant { [54 x ptr], [10 x ptr] }, align 8
@_ZN12MenuLineEditC1EP7QWidget = unnamed_addr alias void (ptr, ptr), ptr @_ZN12MenuLineEditC2EP7QWidget

; Function Attrs: mustprogress nounwind uwtable
define linkonce_odr noundef i32 @_Z22qCountTrailingZeroBitsj(i32 noundef %0) #1 comdat {
  %2 = alloca i32, align 4
  %3 = alloca i32, align 4
  store i32 %0, ptr %3, align 4
  %4 = load i32, ptr %3, align 4
  %5 = icmp ne i32 %4, 0
  br i1 %5, label %6, label %10

6:                                                ; preds = %1
  %7 = load i32, ptr %3, align 4
  store i32 %7, ptr %2, align 4
  %8 = load i32, ptr %2, align 4
  %9 = call noundef i32 @llvm.cttz.i32(i32 %8, i1 true)
  br label %11

10:                                               ; preds = %1
  br label %11

11:                                               ; preds = %10, %6
  %12 = phi i32 [ %9, %6 ], [ 32, %10 ]
  ret i32 %12
}

; Function Attrs: mustprogress nounwind uwtable
define linkonce_odr noundef i32 @_ZN11QSizePolicy23toControlTypeFieldValueENS_11ControlTypeE(i32 noundef %0) #1 comdat align 2 {
  %2 = alloca i32, align 4
  store i32 %0, ptr %2, align 4
  %3 = load i32, ptr %2, align 4
  %4 = call noundef i32 @_Z22qCountTrailingZeroBitsj(i32 noundef %3) #9
  ret i32 %4
}

; Function Attrs: mustprogress nounwind uwtable
define linkonce_odr noundef ptr @_ZN10QArrayData10sharedNullEv() #1 comdat align 2 {
  ret ptr @_ZN10QArrayData11shared_nullE
}

; Function Attrs: mustprogress nounwind uwtable
define linkonce_odr void @_ZN11QSizePolicyC2ENS_6PolicyES0_NS_11ControlTypeE(ptr noundef nonnull align 4 dereferenceable(4) %0, i32 noundef %1, i32 noundef %2, i32 noundef %3) unnamed_addr #1 comdat align 2 {
  %5 = alloca ptr, align 8
  %6 = alloca i32, align 4
  %7 = alloca i32, align 4
  %8 = alloca i32, align 4
  store ptr %0, ptr %5, align 8
  store i32 %1, ptr %6, align 4
  store i32 %2, ptr %7, align 4
  store i32 %3, ptr %8, align 4
  %9 = load ptr, ptr %5, align 8
  %10 = getelementptr inbounds %class.QSizePolicy, ptr %9, i32 0, i32 0
  %11 = load i32, ptr %10, align 4
  %12 = and i32 %11, -256
  %13 = or i32 %12, 0
  store i32 %13, ptr %10, align 4
  %14 = load i32, ptr %10, align 4
  %15 = and i32 %14, -65281
  %16 = or i32 %15, 0
  store i32 %16, ptr %10, align 4
  %17 = load i32, ptr %6, align 4
  %18 = load i32, ptr %10, align 4
  %19 = and i32 %17, 15
  %20 = shl i32 %19, 16
  %21 = and i32 %18, -983041
  %22 = or i32 %21, %20
  store i32 %22, ptr %10, align 4
  %23 = load i32, ptr %7, align 4
  %24 = load i32, ptr %10, align 4
  %25 = and i32 %23, 15
  %26 = shl i32 %25, 20
  %27 = and i32 %24, -15728641
  %28 = or i32 %27, %26
  store i32 %28, ptr %10, align 4
  %29 = load i32, ptr %8, align 4
  %30 = icmp eq i32 %29, 1
  br i1 %30, label %31, label %32

31:                                               ; preds = %4
  br label %35

32:                                               ; preds = %4
  %33 = load i32, ptr %8, align 4
  %34 = call noundef i32 @_ZN11QSizePolicy23toControlTypeFieldValueENS_11ControlTypeE(i32 noundef %33) #9
  br label %35

35:                                               ; preds = %32, %31
  %36 = phi i32 [ 0, %31 ], [ %34, %32 ]
  %37 = load i32, ptr %10, align 4
  %38 = and i32 %36, 31
  %39 = shl i32 %38, 24
  %40 = and i32 %37, -520093697
  %41 = or i32 %40, %39
  store i32 %41, ptr %10, align 4
  %42 = load i32, ptr %10, align 4
  %43 = and i32 %42, -536870913
  %44 = or i32 %43, 0
  store i32 %44, ptr %10, align 4
  %45 = load i32, ptr %10, align 4
  %46 = and i32 %45, -1073741825
  %47 = or i32 %46, 0
  store i32 %47, ptr %10, align 4
  %48 = load i32, ptr %10, align 4
  %49 = and i32 %48, 2147483647
  %50 = or i32 %49, 0
  store i32 %50, ptr %10, align 4
  ret void
}

; Function Attrs: mustprogress nounwind uwtable
define linkonce_odr noundef ptr @_ZN15QTypedArrayDataItE10sharedNullEv() #1 comdat align 2 {
  %1 = call noundef ptr @_ZN10QArrayData10sharedNullEv() #9
  ret ptr %1
}

; Function Attrs: mustprogress nounwind uwtable
define linkonce_odr void @_ZN15MenuWithToolTipD2Ev(ptr noundef nonnull align 8 dereferenceable(48) %0) unnamed_addr #1 comdat align 2 {
  %2 = alloca ptr, align 8
  store ptr %0, ptr %2, align 8
  %3 = load ptr, ptr %2, align 8
  call void @_ZN5QMenuD2Ev(ptr noundef nonnull align 8 dereferenceable(48) %3) #9
  ret void
}

; Function Attrs: mustprogress uwtable
define linkonce_odr void @_ZN7QWidget13setSizePolicyEN11QSizePolicy6PolicyES1_(ptr noundef nonnull align 8 dereferenceable(48) %0, i32 noundef %1, i32 noundef %2) #2 comdat align 2 {
  %4 = alloca ptr, align 8
  %5 = alloca i32, align 4
  %6 = alloca i32, align 4
  %7 = alloca %class.QSizePolicy, align 4
  store ptr %0, ptr %4, align 8
  store i32 %1, ptr %5, align 4
  store i32 %2, ptr %6, align 4
  %8 = load ptr, ptr %4, align 8
  %9 = load i32, ptr %5, align 4
  %10 = load i32, ptr %6, align 4
  call void @_ZN11QSizePolicyC2ENS_6PolicyES0_NS_11ControlTypeE(ptr noundef nonnull align 4 dereferenceable(4) %7, i32 noundef %9, i32 noundef %10, i32 noundef 1) #9
  %11 = getelementptr inbounds %class.QSizePolicy, ptr %7, i32 0, i32 0
  %12 = getelementptr inbounds %union.anon.0, ptr %11, i32 0, i32 0
  %13 = getelementptr inbounds %"struct.QSizePolicy::Bits", ptr %12, i32 0, i32 0
  %14 = load i32, ptr %13, align 4
  call void @_ZN7QWidget13setSizePolicyE11QSizePolicy(ptr noundef nonnull align 8 dereferenceable(48) %8, i32 %14)
  ret void
}

; Function Attrs: mustprogress uwtable
define void @_ZN15MenuWithToolTipC2ERK7QStringP7QWidget(ptr noundef nonnull align 8 dereferenceable(48) %0, ptr noundef nonnull align 8 dereferenceable(8) %1, ptr noundef %2) unnamed_addr #2 align 2 {
  %4 = alloca ptr, align 8
  %5 = alloca ptr, align 8
  %6 = alloca ptr, align 8
  store ptr %0, ptr %4, align 8
  store ptr %1, ptr %5, align 8
  store ptr %2, ptr %6, align 8
  %7 = load ptr, ptr %4, align 8
  %8 = load ptr, ptr %5, align 8
  %9 = load ptr, ptr %6, align 8
  call void @_ZN5QMenuC2ERK7QStringP7QWidget(ptr noundef nonnull align 8 dereferenceable(48) %7, ptr noundef nonnull align 8 dereferenceable(8) %8, ptr noundef %9)
  store ptr getelementptr inbounds ({ [54 x ptr], [10 x ptr] }, ptr @_ZTV15MenuWithToolTip, i32 0, i32 0, i32 2), ptr %7, align 8
  %10 = getelementptr inbounds i8, ptr %7, i64 16
  store ptr getelementptr inbounds ({ [54 x ptr], [10 x ptr] }, ptr @_ZTV15MenuWithToolTip, i32 0, i32 1, i32 2), ptr %10, align 8
  ret void
}

; Function Attrs: mustprogress nounwind uwtable
define linkonce_odr void @_ZN7QStringC2Ev(ptr noundef nonnull align 8 dereferenceable(8) %0) unnamed_addr #1 comdat align 2 {
  %2 = alloca ptr, align 8
  store ptr %0, ptr %2, align 8
  %3 = load ptr, ptr %2, align 8
  %4 = getelementptr inbounds %class.QString, ptr %3, i32 0, i32 0
  %5 = call noundef ptr @_ZN15QTypedArrayDataItE10sharedNullEv() #9
  store ptr %5, ptr %4, align 8
  ret void
}

; Function Attrs: mustprogress uwtable
define void @_ZN10SearchMenuC2ERK14ActionSearcheriP7QWidgeti(ptr noundef nonnull align 8 dereferenceable(72) %0, ptr noundef nonnull align 8 dereferenceable(112) %1, i32 noundef %2, ptr noundef %3, i32 noundef %4) unnamed_addr #2 align 2 personality ptr @__gxx_personality_v0 {
  %6 = alloca ptr, align 8
  %7 = alloca ptr, align 8
  %8 = alloca i32, align 4
  %9 = alloca ptr, align 8
  %10 = alloca i32, align 4
  %11 = alloca %class.QString, align 8
  %12 = alloca ptr, align 8
  %13 = alloca i32, align 4
  %14 = alloca ptr, align 8
  %15 = alloca %"class.QMetaObject::Connection", align 8
  %16 = alloca %"class.QMetaObject::Connection", align 8
  %17 = alloca %"class.QMetaObject::Connection", align 8
  store ptr %0, ptr %6, align 8
  store ptr %1, ptr %7, align 8
  store i32 %2, ptr %8, align 4
  store ptr %3, ptr %9, align 8
  store i32 %4, ptr %10, align 4
  %18 = load ptr, ptr %6, align 8
  call void @_ZN7QStringC2Ev(ptr noundef nonnull align 8 dereferenceable(8) %11) #9
  %19 = load ptr, ptr %9, align 8
  invoke void @_ZN15MenuWithToolTipC2ERK7QStringP7QWidget(ptr noundef nonnull align 8 dereferenceable(48) %18, ptr noundef nonnull align 8 dereferenceable(8) %11, ptr noundef %19)
          to label %20 unwind label %50

20:                                               ; preds = %5
  call void @_ZN7QStringD2Ev(ptr noundef nonnull align 8 dereferenceable(8) %11) #9
  store ptr getelementptr inbounds ({ [54 x ptr], [10 x ptr] }, ptr @_ZTV10SearchMenu, i32 0, i32 0, i32 2), ptr %18, align 8
  %21 = getelementptr inbounds i8, ptr %18, i64 16
  store ptr getelementptr inbounds ({ [54 x ptr], [10 x ptr] }, ptr @_ZTV10SearchMenu, i32 0, i32 1, i32 2), ptr %21, align 8
  %22 = getelementptr inbounds %class.SearchMenu, ptr %18, i32 0, i32 1
  store ptr null, ptr %22, align 8
  %23 = getelementptr inbounds %class.SearchMenu, ptr %18, i32 0, i32 2
  %24 = load ptr, ptr %7, align 8
  store ptr %24, ptr %23, align 8
  %25 = getelementptr inbounds %class.SearchMenu, ptr %18, i32 0, i32 3
  %26 = load i32, ptr %8, align 4
  store i32 %26, ptr %25, align 8
  %27 = getelementptr inbounds %class.SearchMenu, ptr %18, i32 0, i32 4
  %28 = load i32, ptr %10, align 4
  store i32 %28, ptr %27, align 4
  %29 = invoke noalias noundef nonnull ptr @_Znwm(i64 noundef 48) #11
          to label %30 unwind label %54

30:                                               ; preds = %20
  invoke void @_ZN12MenuLineEditC1EP7QWidget(ptr noundef nonnull align 8 dereferenceable(48) %29, ptr noundef %18)
          to label %31 unwind label %58

31:                                               ; preds = %30
  %32 = getelementptr inbounds %class.SearchMenu, ptr %18, i32 0, i32 1
  store ptr %29, ptr %32, align 8
  %33 = invoke noalias noundef nonnull ptr @_Znwm(i64 noundef 16) #11
          to label %34 unwind label %54

34:                                               ; preds = %31
  invoke void @_ZN13QWidgetActionC1EP7QObject(ptr noundef nonnull align 8 dereferenceable(16) %33, ptr noundef %18)
          to label %35 unwind label %62

35:                                               ; preds = %34
  store ptr %33, ptr %14, align 8
  %36 = load ptr, ptr %14, align 8
  %37 = getelementptr inbounds %class.SearchMenu, ptr %18, i32 0, i32 1
  %38 = load ptr, ptr %37, align 8
  invoke void @_ZN13QWidgetAction16setDefaultWidgetEP7QWidget(ptr noundef nonnull align 8 dereferenceable(16) %36, ptr noundef %38)
          to label %39 unwind label %54

39:                                               ; preds = %35
  %40 = load ptr, ptr %14, align 8
  invoke void @_ZN7QWidget9addActionEP7QAction(ptr noundef nonnull align 8 dereferenceable(48) %18, ptr noundef %40)
          to label %41 unwind label %54

41:                                               ; preds = %39
  %42 = getelementptr inbounds %class.SearchMenu, ptr %18, i32 0, i32 1
  %43 = load ptr, ptr %42, align 8
  invoke void @_ZN7QObject7connectEPKS_PKcS1_S3_N2Qt14ConnectionTypeE(ptr dead_on_unwind writable sret(%"class.QMetaObject::Connection") align 8 %15, ptr noundef %43, ptr noundef @.str, ptr noundef %18, ptr noundef @.str.1, i32 noundef 0)
          to label %44 unwind label %54

44:                                               ; preds = %41
  call void @_ZN11QMetaObject10ConnectionD1Ev(ptr noundef nonnull align 8 dereferenceable(8) %15) #9
  %45 = getelementptr inbounds %class.SearchMenu, ptr %18, i32 0, i32 1
  %46 = load ptr, ptr %45, align 8
  invoke void @_ZN7QObject7connectEPKS_PKcS1_S3_N2Qt14ConnectionTypeE(ptr dead_on_unwind writable sret(%"class.QMetaObject::Connection") align 8 %16, ptr noundef %46, ptr noundef @.str.2, ptr noundef %18, ptr noundef @.str.3, i32 noundef 0)
          to label %47 unwind label %54

47:                                               ; preds = %44
  call void @_ZN11QMetaObject10ConnectionD1Ev(ptr noundef nonnull align 8 dereferenceable(8) %16) #9
  invoke void @_ZN7QObject7connectEPKS_PKcS1_S3_N2Qt14ConnectionTypeE(ptr dead_on_unwind writable sret(%"class.QMetaObject::Connection") align 8 %17, ptr noundef %18, ptr noundef @.str.4, ptr noundef %18, ptr noundef @.str.5, i32 noundef 0)
          to label %48 unwind label %54

48:                                               ; preds = %47
  call void @_ZN11QMetaObject10ConnectionD1Ev(ptr noundef nonnull align 8 dereferenceable(8) %17) #9
  invoke void @_ZN7QWidget13setSizePolicyEN11QSizePolicy6PolicyES1_(ptr noundef nonnull align 8 dereferenceable(48) %18, i32 noundef 0, i32 noundef 0)
          to label %49 unwind label %54

49:                                               ; preds = %48
  ret void

50:                                               ; preds = %5
  %51 = landingpad { ptr, i32 }
          cleanup
  %52 = extractvalue { ptr, i32 } %51, 0
  store ptr %52, ptr %12, align 8
  %53 = extractvalue { ptr, i32 } %51, 1
  store i32 %53, ptr %13, align 4
  call void @_ZN7QStringD2Ev(ptr noundef nonnull align 8 dereferenceable(8) %11) #9
  br label %67

54:                                               ; preds = %48, %47, %44, %41, %39, %35, %31, %20
  %55 = landingpad { ptr, i32 }
          cleanup
  %56 = extractvalue { ptr, i32 } %55, 0
  store ptr %56, ptr %12, align 8
  %57 = extractvalue { ptr, i32 } %55, 1
  store i32 %57, ptr %13, align 4
  br label %66

58:                                               ; preds = %30
  %59 = landingpad { ptr, i32 }
          cleanup
  %60 = extractvalue { ptr, i32 } %59, 0
  store ptr %60, ptr %12, align 8
  %61 = extractvalue { ptr, i32 } %59, 1
  store i32 %61, ptr %13, align 4
  call void @_ZdlPv(ptr noundef %29) #10
  br label %66

62:                                               ; preds = %34
  %63 = landingpad { ptr, i32 }
          cleanup
  %64 = extractvalue { ptr, i32 } %63, 0
  store ptr %64, ptr %12, align 8
  %65 = extractvalue { ptr, i32 } %63, 1
  store i32 %65, ptr %13, align 4
  call void @_ZdlPv(ptr noundef %33) #10
  br label %66

66:                                               ; preds = %62, %58, %54
  call void @_ZN15MenuWithToolTipD2Ev(ptr noundef nonnull align 8 dereferenceable(48) %18) #9
  br label %67

67:                                               ; preds = %66, %50
  %68 = load ptr, ptr %12, align 8
  %69 = load i32, ptr %13, align 4
  %70 = insertvalue { ptr, i32 } poison, ptr %68, 0
  %71 = insertvalue { ptr, i32 } %70, i32 %69, 1
  resume { ptr, i32 } %71
}