; Function Attrs: mustprogress uwtable
define void @_ZN10SearchMenuC2ERK14ActionSearcheriP7QWidgeti(ptr noundef nonnull align 8 dereferenceable(72) %0, ptr noundef nonnull align 8 dereferenceable(112) %1, i32 noundef %2, ptr noundef %3, i32 noundef %4) unnamed_addr #2 align 2 personality ptr @__gxx_personality_v0 {
  %6 = alloca %class.QString, align 8
  %7 = alloca %"class.QMetaObject::Connection", align 8
  %8 = alloca %"class.QMetaObject::Connection", align 8
  %9 = alloca %"class.QMetaObject::Connection", align 8
  store ptr @_ZN10QArrayData11shared_nullE, ptr %6, align 8
  invoke void @_ZN5QMenuC2ERK7QStringP7QWidget(ptr noundef nonnull align 8 dereferenceable(48) %0, ptr noundef nonnull align 8 dereferenceable(8) %6, ptr noundef %3)
          to label %10 unwind label %34

10:                                               ; preds = %5
  store ptr getelementptr inbounds ({ [54 x ptr], [10 x ptr] }, ptr @_ZTV15MenuWithToolTip, i64 0, i32 0, i64 2), ptr %0, align 8
  %11 = getelementptr inbounds i8, ptr %0, i64 16
  store ptr getelementptr inbounds ({ [54 x ptr], [10 x ptr] }, ptr @_ZTV15MenuWithToolTip, i64 0, i32 1, i64 2), ptr %11, align 8
  %12 = load ptr, ptr %6, align 8
  %13 = load atomic i32, ptr %12 monotonic, align 4
  switch i32 %13, label %_ZN9QtPrivate8RefCount5derefEv.exit.i [
    i32 0, label %_ZN9QtPrivate8RefCount5derefEv.exit.thread2.i
    i32 -1, label %_ZN7QStringD2Ev.exit
  ]

_ZN9QtPrivate8RefCount5derefEv.exit.i:            ; preds = %10
  %14 = atomicrmw sub ptr %12, i32 1 seq_cst, align 4
  %.not.i = icmp eq i32 %14, 1
  br i1 %.not.i, label %_ZN9QtPrivate8RefCount5derefEv.exit._ZN9QtPrivate8RefCount5derefEv.exit.thread2_crit_edge.i, label %_ZN7QStringD2Ev.exit

_ZN9QtPrivate8RefCount5derefEv.exit._ZN9QtPrivate8RefCount5derefEv.exit.thread2_crit_edge.i: ; preds = %_ZN9QtPrivate8RefCount5derefEv.exit.i
  %.pre.i = load ptr, ptr %6, align 8
  br label %_ZN9QtPrivate8RefCount5derefEv.exit.thread2.i

_ZN9QtPrivate8RefCount5derefEv.exit.thread2.i:    ; preds = %_ZN9QtPrivate8RefCount5derefEv.exit._ZN9QtPrivate8RefCount5derefEv.exit.thread2_crit_edge.i, %10
  %15 = phi ptr [ %.pre.i, %_ZN9QtPrivate8RefCount5derefEv.exit._ZN9QtPrivate8RefCount5derefEv.exit.thread2_crit_edge.i ], [ %12, %10 ]
  call void @_ZN10QArrayData10deallocateEPS_mm(ptr noundef %15, i64 noundef 2, i64 noundef 8) #11
  br label %_ZN7QStringD2Ev.exit

_ZN7QStringD2Ev.exit:                             ; preds = %10, %_ZN9QtPrivate8RefCount5derefEv.exit.i, %_ZN9QtPrivate8RefCount5derefEv.exit.thread2.i
  store ptr getelementptr inbounds ({ [54 x ptr], [10 x ptr] }, ptr @_ZTV10SearchMenu, i64 0, i32 0, i64 2), ptr %0, align 8
  store ptr getelementptr inbounds ({ [54 x ptr], [10 x ptr] }, ptr @_ZTV10SearchMenu, i64 0, i32 1, i64 2), ptr %11, align 8
  %16 = getelementptr inbounds i8, ptr %0, i64 48
  store ptr null, ptr %16, align 8
  %17 = getelementptr inbounds i8, ptr %0, i64 56
  store ptr %1, ptr %17, align 8
  %18 = getelementptr inbounds i8, ptr %0, i64 64
  store i32 %2, ptr %18, align 8
  %19 = getelementptr inbounds i8, ptr %0, i64 68
  store i32 %4, ptr %19, align 4
  %20 = invoke noalias noundef nonnull dereferenceable(48) ptr @_Znwm(i64 noundef 48) #13
          to label %21 unwind label %36

21:                                               ; preds = %_ZN7QStringD2Ev.exit
  invoke void @_ZN12MenuLineEditC1EP7QWidget(ptr noundef nonnull align 8 dereferenceable(48) %20, ptr noundef nonnull %0)
          to label %22 unwind label %38

22:                                               ; preds = %21
  store ptr %20, ptr %16, align 8
  %23 = invoke noalias noundef nonnull dereferenceable(16) ptr @_Znwm(i64 noundef 16) #13
          to label %24 unwind label %36

24:                                               ; preds = %22
  invoke void @_ZN13QWidgetActionC1EP7QObject(ptr noundef nonnull align 8 dereferenceable(16) %23, ptr noundef nonnull %0)
          to label %25 unwind label %40

25:                                               ; preds = %24
  %26 = load ptr, ptr %16, align 8
  invoke void @_ZN13QWidgetAction16setDefaultWidgetEP7QWidget(ptr noundef nonnull align 8 dereferenceable(16) %23, ptr noundef %26)
          to label %27 unwind label %36

27:                                               ; preds = %25
  invoke void @_ZN7QWidget9addActionEP7QAction(ptr noundef nonnull align 8 dereferenceable(48) %0, ptr noundef nonnull %23)
          to label %28 unwind label %36

28:                                               ; preds = %27
  %29 = load ptr, ptr %16, align 8
  invoke void @_ZN7QObject7connectEPKS_PKcS1_S3_N2Qt14ConnectionTypeE(ptr dead_on_unwind nonnull writable sret(%"class.QMetaObject::Connection") align 8 %7, ptr noundef %29, ptr noundef nonnull @.str, ptr noundef nonnull %0, ptr noundef nonnull @.str.1, i32 noundef 0)
          to label %30 unwind label %36

30:                                               ; preds = %28
  call void @_ZN11QMetaObject10ConnectionD1Ev(ptr noundef nonnull align 8 dereferenceable(8) %7) #11
  %31 = load ptr, ptr %16, align 8
  invoke void @_ZN7QObject7connectEPKS_PKcS1_S3_N2Qt14ConnectionTypeE(ptr dead_on_unwind nonnull writable sret(%"class.QMetaObject::Connection") align 8 %8, ptr noundef %31, ptr noundef nonnull @.str.2, ptr noundef nonnull %0, ptr noundef nonnull @.str.3, i32 noundef 0)
          to label %32 unwind label %36

32:                                               ; preds = %30
  call void @_ZN11QMetaObject10ConnectionD1Ev(ptr noundef nonnull align 8 dereferenceable(8) %8) #11
  invoke void @_ZN7QObject7connectEPKS_PKcS1_S3_N2Qt14ConnectionTypeE(ptr dead_on_unwind nonnull writable sret(%"class.QMetaObject::Connection") align 8 %9, ptr noundef nonnull %0, ptr noundef nonnull @.str.4, ptr noundef nonnull %0, ptr noundef nonnull @.str.5, i32 noundef 0)
          to label %33 unwind label %36

33:                                               ; preds = %32
  call void @_ZN11QMetaObject10ConnectionD1Ev(ptr noundef nonnull align 8 dereferenceable(8) %9) #11
  invoke void @_ZN7QWidget13setSizePolicyE11QSizePolicy(ptr noundef nonnull align 8 dereferenceable(48) %0, i32 0)
          to label %_ZN7QWidget13setSizePolicyEN11QSizePolicy6PolicyES1_.exit unwind label %36

_ZN7QWidget13setSizePolicyEN11QSizePolicy6PolicyES1_.exit: ; preds = %33
  ret void

34:                                               ; preds = %5
  %35 = landingpad { ptr, i32 }
          cleanup
  call void @_ZN7QStringD2Ev(ptr noundef nonnull align 8 dereferenceable(8) %6) #11
  br label %43

36:                                               ; preds = %33, %32, %30, %28, %27, %25, %22, %_ZN7QStringD2Ev.exit
  %37 = landingpad { ptr, i32 }
          cleanup
  br label %42

38:                                               ; preds = %21
  %39 = landingpad { ptr, i32 }
          cleanup
  call void @_ZdlPv(ptr noundef nonnull %20) #12
  br label %42

40:                                               ; preds = %24
  %41 = landingpad { ptr, i32 }
          cleanup
  call void @_ZdlPv(ptr noundef nonnull %23) #12
  br label %42

42:                                               ; preds = %40, %38, %36
  %.pn = phi { ptr, i32 } [ %37, %36 ], [ %41, %40 ], [ %39, %38 ]
  call void @_ZN5QMenuD2Ev(ptr noundef nonnull align 8 dereferenceable(48) %0) #11
  br label %43

43:                                               ; preds = %42, %34
  %.pn.pn = phi { ptr, i32 } [ %.pn, %42 ], [ %35, %34 ]
  resume { ptr, i32 } %.pn.pn
}